; Function Attrs: nounwind uwtable
define range(i32 -1, 1) i32 @PGTYPESnumeric_from_long(i64 noundef %0, ptr noundef captures(none) initializes((16, 20)) %1) local_unnamed_addr #0 {
  %3 = lshr i64 %0, 49
  %4 = trunc nuw nsw i64 %3 to i32
  %spec.select = and i32 %4, 16384
  %spec.select43 = tail call i64 @llvm.abs.i64(i64 %0, i1 false)
  %5 = getelementptr inbounds nuw i8, ptr %1, i64 16
  store i32 %spec.select, ptr %5, align 8
  br label %6

6:                                                ; preds = %6, %2
  %.036 = phi i32 [ 0, %2 ], [ %7, %6 ]
  %.0 = phi i64 [ 1, %2 ], [ %8, %6 ]
  %7 = add nuw nsw i32 %.036, 1
  %8 = mul i64 %.0, 10
  %9 = add i64 %8, -1
  %10 = icmp slt i64 %9, %spec.select43
  %11 = icmp slt i64 %8, 922337203685477581
  %12 = and i1 %11, %10
  br i1 %12, label %6, label %13, !llvm.loop !38

13:                                               ; preds = %6
  %14 = icmp sgt i64 %8, 922337203685477580
  br i1 %14, label %15, label %17

15:                                               ; preds = %13
  %16 = add nuw i32 %.036, 3
  br label %20

17:                                               ; preds = %13
  %18 = add nuw i32 %.036, 2
  %19 = sdiv i64 %8, 10
  br label %20

20:                                               ; preds = %17, %15
  %.137 = phi i32 [ %16, %15 ], [ %18, %17 ]
  %.1 = phi i64 [ %8, %15 ], [ %19, %17 ]
  %21 = getelementptr inbounds nuw i8, ptr %1, i64 24
  %22 = load ptr, ptr %21, align 8
  tail call void @free(ptr noundef %22) #14
  %23 = add i32 %.137, 1
  %24 = sext i32 %23 to i64
  %25 = tail call ptr @pgtypes_alloc(i64 noundef %24) #14
  store ptr %25, ptr %21, align 8
  %26 = icmp eq ptr %25, null
  br i1 %26, label %alloc_var.exit.thread, label %27

27:                                               ; preds = %20
  store i8 0, ptr %25, align 1
  %28 = load ptr, ptr %21, align 8
  %29 = getelementptr inbounds nuw i8, ptr %28, i64 1
  %30 = getelementptr inbounds nuw i8, ptr %1, i64 32
  store ptr %29, ptr %30, align 8
  store i32 %.137, ptr %1, align 8
  %31 = getelementptr inbounds nuw i8, ptr %1, i64 8
  store i32 1, ptr %31, align 8
  %32 = getelementptr inbounds nuw i8, ptr %1, i64 12
  store i32 1, ptr %32, align 4
  %33 = add i32 %.137, -2
  %34 = getelementptr inbounds nuw i8, ptr %1, i64 4
  store i32 %33, ptr %34, align 4
  br label %35

35:                                               ; preds = %35, %27
  %.035 = phi i32 [ 0, %27 ], [ %42, %35 ]
  %.134 = phi i64 [ %spec.select43, %27 ], [ %36, %35 ]
  %.2 = phi i64 [ %.1, %27 ], [ %43, %35 ]
  %36 = srem i64 %.134, %.2
  %37 = sdiv i64 %.134, %.2
  %38 = trunc i64 %37 to i8
  %39 = load ptr, ptr %30, align 8
  %40 = sext i32 %.035 to i64
  %41 = getelementptr inbounds i8, ptr %39, i64 %40
  store i8 %38, ptr %41, align 1
  %42 = add i32 %.035, 1
  %43 = sdiv i64 %.2, 10
  %44 = icmp sgt i64 %36, 0
  br i1 %44, label %35, label %alloc_var.exit.thread, !llvm.loop !39

alloc_var.exit.thread:                            ; preds = %35, %20
  %.032 = phi i32 [ -1, %20 ], [ 0, %35 ]
  ret i32 %.032
}